; Function Attrs: mustprogress nofree norecurse nosync nounwind willreturn memory(read, argmem: readwrite, inaccessiblemem: none) uwtable
define hidden range(i32 -27648, 1) i32 @mbedtls_ssl_tls13_export_handshake_psk(ptr noundef readonly captures(none) %0, ptr noundef writeonly captures(none) initializes((0, 8)) %1, ptr noundef writeonly captures(none) initializes((0, 8)) %2) local_unnamed_addr #5 {
  %4 = getelementptr inbounds nuw i8, ptr %0, i64 112
  %5 = load ptr, ptr %4, align 8, !tbaa !11
  %6 = getelementptr inbounds nuw i8, ptr %5, i64 1680
  %7 = load ptr, ptr %6, align 8, !tbaa !59
  store ptr %7, ptr %1, align 8, !tbaa !61
  %8 = getelementptr inbounds nuw i8, ptr %5, i64 1688
  %9 = load i64, ptr %8, align 8, !tbaa !60
  store i64 %9, ptr %2, align 8, !tbaa !10
  %10 = icmp eq ptr %7, null
  %. = select i1 %10, i32 -27648, i32 0
  ret i32 %.
}